target datalayout = "e-m:e-p270:32:32-p271:32:32-p272:64:64-i64:64-i128:128-f80:128-n8:16:32:64-S128"
target triple = "x86_64-pc-linux-gnu"

%struct.Vec_Int_t_ = type { i32, i32, ptr }
%struct.Cnf_Dat_t_ = type { ptr, i32, i32, i32, ptr, ptr, ptr, ptr, ptr, ptr }

@.str = private unnamed_addr constant [13 x i8] c"p cnf %d %d\0A\00", align 1
@.str.4 = private unnamed_addr constant [2 x i8] c"\0A\00", align 1
@.str.5 = private unnamed_addr constant [3 x i8] c"wb\00", align 1
@.str.6 = private unnamed_addr constant [52 x i8] c"Cnf_WriteIntoFile(): Output file cannot be opened.\0A\00", align 1
@.str.7 = private unnamed_addr constant [63 x i8] c"c Result of efficient AIG-to-CNF conversion using package CNF\0A\00", align 1
@.str.8 = private unnamed_addr constant [3 x i8] c"a \00", align 1
@.str.9 = private unnamed_addr constant [4 x i8] c"%d \00", align 1
@.str.10 = private unnamed_addr constant [3 x i8] c"0\0A\00", align 1
@.str.11 = private unnamed_addr constant [3 x i8] c"e \00", align 1

; Function Attrs: inlinehint nounwind uwtable
define internal i32 @Cnf_Lit2Var(i32 noundef %0) #5 {
  %2 = alloca i32, align 4
  store i32 %0, ptr %2, align 4, !tbaa !20
  %3 = load i32, ptr %2, align 4, !tbaa !20
  %4 = and i32 %3, 1
  %5 = icmp ne i32 %4, 0
  br i1 %5, label %6, label %11

6:                                                ; preds = %1
  %7 = load i32, ptr %2, align 4, !tbaa !20
  %8 = ashr i32 %7, 1
  %9 = sub nsw i32 0, %8
  %10 = sub nsw i32 %9, 1
  br label %15

11:                                               ; preds = %1
  %12 = load i32, ptr %2, align 4, !tbaa !20
  %13 = ashr i32 %12, 1
  %14 = add nsw i32 %13, 1
  br label %15

15:                                               ; preds = %11, %6
  %16 = phi i32 [ %10, %6 ], [ %14, %11 ]
  ret i32 %16
}

; Function Attrs: inlinehint nounwind uwtable
define internal i32 @Cnf_Lit2Var2(i32 noundef %0) #5 {
  %2 = alloca i32, align 4
  store i32 %0, ptr %2, align 4, !tbaa !20
  %3 = load i32, ptr %2, align 4, !tbaa !20
  %4 = and i32 %3, 1
  %5 = icmp ne i32 %4, 0
  br i1 %5, label %6, label %10

6:                                                ; preds = %1
  %7 = load i32, ptr %2, align 4, !tbaa !20
  %8 = ashr i32 %7, 1
  %9 = sub nsw i32 0, %8
  br label %13

10:                                               ; preds = %1
  %11 = load i32, ptr %2, align 4, !tbaa !20
  %12 = ashr i32 %11, 1
  br label %13

13:                                               ; preds = %10, %6
  %14 = phi i32 [ %9, %6 ], [ %12, %10 ]
  ret i32 %14
}

; Function Attrs: inlinehint nounwind uwtable
define internal i32 @Vec_IntEntry(ptr noundef %0, i32 noundef %1) #5 {
  %3 = alloca ptr, align 8
  %4 = alloca i32, align 4
  store ptr %0, ptr %3, align 8, !tbaa !24
  store i32 %1, ptr %4, align 4, !tbaa !20
  %5 = load ptr, ptr %3, align 8, !tbaa !24
  %6 = getelementptr inbounds nuw %struct.Vec_Int_t_, ptr %5, i32 0, i32 2
  %7 = load ptr, ptr %6, align 8, !tbaa !28
  %8 = load i32, ptr %4, align 4, !tbaa !20
  %9 = sext i32 %8 to i64
  %10 = getelementptr inbounds i32, ptr %7, i64 %9
  %11 = load i32, ptr %10, align 4, !tbaa !20
  ret i32 %11
}

; Function Attrs: inlinehint nounwind uwtable
define internal i32 @Vec_IntSize(ptr noundef %0) #5 {
  %2 = alloca ptr, align 8
  store ptr %0, ptr %2, align 8, !tbaa !24
  %3 = load ptr, ptr %2, align 8, !tbaa !24
  %4 = getelementptr inbounds nuw %struct.Vec_Int_t_, ptr %3, i32 0, i32 1
  %5 = load i32, ptr %4, align 4, !tbaa !25
  ret i32 %5
}

; Function Attrs: nounwind uwtable
define void @Cnf_DataWriteIntoFileInvGz(ptr noundef %0, ptr noundef %1, i32 noundef %2, ptr noundef %3, ptr noundef %4, ptr noundef %5) #0 {
  %7 = alloca ptr, align 8
  %8 = alloca ptr, align 8
  %9 = alloca i32, align 4
  %10 = alloca ptr, align 8
  %11 = alloca ptr, align 8
  %12 = alloca ptr, align 8
  %13 = alloca ptr, align 8
  %14 = alloca ptr, align 8
  %15 = alloca ptr, align 8
  %16 = alloca i32, align 4
  %17 = alloca i32, align 4
  %18 = alloca i32, align 4
  store ptr %0, ptr %7, align 8, !tbaa !32
  store ptr %1, ptr %8, align 8, !tbaa !31
  store i32 %2, ptr %9, align 4, !tbaa !20
  store ptr %3, ptr %10, align 8, !tbaa !24
  store ptr %4, ptr %11, align 8, !tbaa !24
  store ptr %5, ptr %12, align 8, !tbaa !24
  call void @llvm.lifetime.start.p0(i64 8, ptr %13) #11
  call void @llvm.lifetime.start.p0(i64 8, ptr %14) #11
  call void @llvm.lifetime.start.p0(i64 8, ptr %15) #11
  call void @llvm.lifetime.start.p0(i64 4, ptr %16) #11
  call void @llvm.lifetime.start.p0(i64 4, ptr %17) #11
  %19 = load ptr, ptr %8, align 8, !tbaa !31
  %20 = call ptr @gzopen(ptr noundef %19, ptr noundef @.str.5)
  store ptr %20, ptr %13, align 8, !tbaa !54
  %21 = load ptr, ptr %13, align 8, !tbaa !54
  %22 = icmp eq ptr %21, null
  br i1 %22, label %23, label %25

23:                                               ; preds = %6
  %24 = call i32 (ptr, ...) @printf(ptr noundef @.str.6)
  store i32 1, ptr %18, align 4
  br label %196

25:                                               ; preds = %6
  %26 = load ptr, ptr %13, align 8, !tbaa !54
  %27 = call i32 (ptr, ptr, ...) @gzprintf(ptr noundef %26, ptr noundef @.str.7)
  %28 = load ptr, ptr %13, align 8, !tbaa !54
  %29 = load ptr, ptr %7, align 8, !tbaa !32
  %30 = getelementptr inbounds nuw %struct.Cnf_Dat_t_, ptr %29, i32 0, i32 1
  %31 = load i32, ptr %30, align 8, !tbaa !56
  %32 = load ptr, ptr %7, align 8, !tbaa !32
  %33 = getelementptr inbounds nuw %struct.Cnf_Dat_t_, ptr %32, i32 0, i32 3
  %34 = load i32, ptr %33, align 8, !tbaa !57
  %35 = call i32 (ptr, ptr, ...) @gzprintf(ptr noundef %28, ptr noundef @.str, i32 noundef %31, i32 noundef %34)
  %36 = load ptr, ptr %10, align 8, !tbaa !24
  %37 = icmp ne ptr %36, null
  br i1 %37, label %38, label %70

38:                                               ; preds = %25
  %39 = load ptr, ptr %13, align 8, !tbaa !54
  %40 = call i32 (ptr, ptr, ...) @gzprintf(ptr noundef %39, ptr noundef @.str.11)
  store i32 0, ptr %16, align 4, !tbaa !20
  br label %41

41:                                               ; preds = %64, %38
  %42 = load i32, ptr %16, align 4, !tbaa !20
  %43 = load ptr, ptr %10, align 8, !tbaa !24
  %44 = call i32 @Vec_IntSize(ptr noundef %43)
  %45 = icmp slt i32 %42, %44
  br i1 %45, label %46, label %50

46:                                               ; preds = %41
  %47 = load ptr, ptr %10, align 8, !tbaa !24
  %48 = load i32, ptr %16, align 4, !tbaa !20
  %49 = call i32 @Vec_IntEntry(ptr noundef %47, i32 noundef %48)
  store i32 %49, ptr %17, align 4, !tbaa !20
  br label %50

50:                                               ; preds = %46, %41
  %51 = phi i1 [ false, %41 ], [ true, %46 ]
  br i1 %51, label %52, label %67

52:                                               ; preds = %50
  %53 = load ptr, ptr %13, align 8, !tbaa !54
  %54 = load i32, ptr %9, align 4, !tbaa !20
  %55 = icmp ne i32 %54, 0
  br i1 %55, label %56, label %58

56:                                               ; preds = %52
  %57 = load i32, ptr %17, align 4, !tbaa !20
  br label %61

58:                                               ; preds = %52
  %59 = load i32, ptr %17, align 4, !tbaa !20
  %60 = add nsw i32 %59, 1
  br label %61

61:                                               ; preds = %58, %56
  %62 = phi i32 [ %57, %56 ], [ %60, %58 ]
  %63 = call i32 (ptr, ptr, ...) @gzprintf(ptr noundef %53, ptr noundef @.str.9, i32 noundef %62)
  br label %64

64:                                               ; preds = %61
  %65 = load i32, ptr %16, align 4, !tbaa !20
  %66 = add nsw i32 %65, 1
  store i32 %66, ptr %16, align 4, !tbaa !20
  br label %41, !llvm.loop !82

67:                                               ; preds = %50
  %68 = load ptr, ptr %13, align 8, !tbaa !54
  %69 = call i32 (ptr, ptr, ...) @gzprintf(ptr noundef %68, ptr noundef @.str.10)
  br label %70

70:                                               ; preds = %67, %25
  %71 = load ptr, ptr %11, align 8, !tbaa !24
  %72 = icmp ne ptr %71, null
  br i1 %72, label %73, label %105

73:                                               ; preds = %70
  %74 = load ptr, ptr %13, align 8, !tbaa !54
  %75 = call i32 (ptr, ptr, ...) @gzprintf(ptr noundef %74, ptr noundef @.str.8)
  store i32 0, ptr %16, align 4, !tbaa !20
  br label %76

76:                                               ; preds = %99, %73
  %77 = load i32, ptr %16, align 4, !tbaa !20
  %78 = load ptr, ptr %11, align 8, !tbaa !24
  %79 = call i32 @Vec_IntSize(ptr noundef %78)
  %80 = icmp slt i32 %77, %79
  br i1 %80, label %81, label %85

81:                                               ; preds = %76
  %82 = load ptr, ptr %11, align 8, !tbaa !24
  %83 = load i32, ptr %16, align 4, !tbaa !20
  %84 = call i32 @Vec_IntEntry(ptr noundef %82, i32 noundef %83)
  store i32 %84, ptr %17, align 4, !tbaa !20
  br label %85

85:                                               ; preds = %81, %76
  %86 = phi i1 [ false, %76 ], [ true, %81 ]
  br i1 %86, label %87, label %102

87:                                               ; preds = %85
  %88 = load ptr, ptr %13, align 8, !tbaa !54
  %89 = load i32, ptr %9, align 4, !tbaa !20
  %90 = icmp ne i32 %89, 0
  br i1 %90, label %91, label %93

91:                                               ; preds = %87
  %92 = load i32, ptr %17, align 4, !tbaa !20
  br label %96

93:                                               ; preds = %87
  %94 = load i32, ptr %17, align 4, !tbaa !20
  %95 = add nsw i32 %94, 1
  br label %96

96:                                               ; preds = %93, %91
  %97 = phi i32 [ %92, %91 ], [ %95, %93 ]
  %98 = call i32 (ptr, ptr, ...) @gzprintf(ptr noundef %88, ptr noundef @.str.9, i32 noundef %97)
  br label %99

99:                                               ; preds = %96
  %100 = load i32, ptr %16, align 4, !tbaa !20
  %101 = add nsw i32 %100, 1
  store i32 %101, ptr %16, align 4, !tbaa !20
  br label %76, !llvm.loop !83

102:                                              ; preds = %85
  %103 = load ptr, ptr %13, align 8, !tbaa !54
  %104 = call i32 (ptr, ptr, ...) @gzprintf(ptr noundef %103, ptr noundef @.str.10)
  br label %105

105:                                              ; preds = %102, %70
  %106 = load ptr, ptr %12, align 8, !tbaa !24
  %107 = icmp ne ptr %106, null
  br i1 %107, label %108, label %140

108:                                              ; preds = %105
  %109 = load ptr, ptr %13, align 8, !tbaa !54
  %110 = call i32 (ptr, ptr, ...) @gzprintf(ptr noundef %109, ptr noundef @.str.11)
  store i32 0, ptr %16, align 4, !tbaa !20
  br label %111

111:                                              ; preds = %134, %108
  %112 = load i32, ptr %16, align 4, !tbaa !20
  %113 = load ptr, ptr %12, align 8, !tbaa !24
  %114 = call i32 @Vec_IntSize(ptr noundef %113)
  %115 = icmp slt i32 %112, %114
  br i1 %115, label %116, label %120

116:                                              ; preds = %111
  %117 = load ptr, ptr %12, align 8, !tbaa !24
  %118 = load i32, ptr %16, align 4, !tbaa !20
  %119 = call i32 @Vec_IntEntry(ptr noundef %117, i32 noundef %118)
  store i32 %119, ptr %17, align 4, !tbaa !20
  br label %120

120:                                              ; preds = %116, %111
  %121 = phi i1 [ false, %111 ], [ true, %116 ]
  br i1 %121, label %122, label %137

122:                                              ; preds = %120
  %123 = load ptr, ptr %13, align 8, !tbaa !54
  %124 = load i32, ptr %9, align 4, !tbaa !20
  %125 = icmp ne i32 %124, 0
  br i1 %125, label %126, label %128

126:                                              ; preds = %122
  %127 = load i32, ptr %17, align 4, !tbaa !20
  br label %131

128:                                              ; preds = %122
  %129 = load i32, ptr %17, align 4, !tbaa !20
  %130 = add nsw i32 %129, 1
  br label %131

131:                                              ; preds = %128, %126
  %132 = phi i32 [ %127, %126 ], [ %130, %128 ]
  %133 = call i32 (ptr, ptr, ...) @gzprintf(ptr noundef %123, ptr noundef @.str.9, i32 noundef %132)
  br label %134

134:                                              ; preds = %131
  %135 = load i32, ptr %16, align 4, !tbaa !20
  %136 = add nsw i32 %135, 1
  store i32 %136, ptr %16, align 4, !tbaa !20
  br label %111, !llvm.loop !84

137:                                              ; preds = %120
  %138 = load ptr, ptr %13, align 8, !tbaa !54
  %139 = call i32 (ptr, ptr, ...) @gzprintf(ptr noundef %138, ptr noundef @.str.10)
  br label %140

140:                                              ; preds = %137, %105
  store i32 0, ptr %16, align 4, !tbaa !20
  br label %141

141:                                              ; preds = %188, %140
  %142 = load i32, ptr %16, align 4, !tbaa !20
  %143 = load ptr, ptr %7, align 8, !tbaa !32
  %144 = getelementptr inbounds nuw %struct.Cnf_Dat_t_, ptr %143, i32 0, i32 3
  %145 = load i32, ptr %144, align 8, !tbaa !57
  %146 = icmp slt i32 %142, %145
  br i1 %146, label %147, label %191

147:                                              ; preds = %141
  %148 = load ptr, ptr %7, align 8, !tbaa !32
  %149 = getelementptr inbounds nuw %struct.Cnf_Dat_t_, ptr %148, i32 0, i32 4
  %150 = load ptr, ptr %149, align 8, !tbaa !59
  %151 = load i32, ptr %16, align 4, !tbaa !20
  %152 = sext i32 %151 to i64
  %153 = getelementptr inbounds ptr, ptr %150, i64 %152
  %154 = load ptr, ptr %153, align 8, !tbaa !18
  store ptr %154, ptr %14, align 8, !tbaa !18
  %155 = load ptr, ptr %7, align 8, !tbaa !32
  %156 = getelementptr inbounds nuw %struct.Cnf_Dat_t_, ptr %155, i32 0, i32 4
  %157 = load ptr, ptr %156, align 8, !tbaa !59
  %158 = load i32, ptr %16, align 4, !tbaa !20
  %159 = add nsw i32 %158, 1
  %160 = sext i32 %159 to i64
  %161 = getelementptr inbounds ptr, ptr %157, i64 %160
  %162 = load ptr, ptr %161, align 8, !tbaa !18
  store ptr %162, ptr %15, align 8, !tbaa !18
  br label %163

163:                                              ; preds = %182, %147
  %164 = load ptr, ptr %14, align 8, !tbaa !18
  %165 = load ptr, ptr %15, align 8, !tbaa !18
  %166 = icmp ult ptr %164, %165
  br i1 %166, label %167, label %185

167:                                              ; preds = %163
  %168 = load ptr, ptr %13, align 8, !tbaa !54
  %169 = load i32, ptr %9, align 4, !tbaa !20
  %170 = icmp ne i32 %169, 0
  br i1 %170, label %171, label %175

171:                                              ; preds = %167
  %172 = load ptr, ptr %14, align 8, !tbaa !18
  %173 = load i32, ptr %172, align 4, !tbaa !20
  %174 = call i32 @Cnf_Lit2Var2(i32 noundef %173)
  br label %179

175:                                              ; preds = %167
  %176 = load ptr, ptr %14, align 8, !tbaa !18
  %177 = load i32, ptr %176, align 4, !tbaa !20
  %178 = call i32 @Cnf_Lit2Var(i32 noundef %177)
  br label %179

179:                                              ; preds = %175, %171
  %180 = phi i32 [ %174, %171 ], [ %178, %175 ]
  %181 = call i32 (ptr, ptr, ...) @gzprintf(ptr noundef %168, ptr noundef @.str.9, i32 noundef %180)
  br label %182

182:                                              ; preds = %179
  %183 = load ptr, ptr %14, align 8, !tbaa !18
  %184 = getelementptr inbounds nuw i32, ptr %183, i32 1
  store ptr %184, ptr %14, align 8, !tbaa !18
  br label %163, !llvm.loop !85

185:                                              ; preds = %163
  %186 = load ptr, ptr %13, align 8, !tbaa !54
  %187 = call i32 (ptr, ptr, ...) @gzprintf(ptr noundef %186, ptr noundef @.str.10)
  br label %188

188:                                              ; preds = %185
  %189 = load i32, ptr %16, align 4, !tbaa !20
  %190 = add nsw i32 %189, 1
  store i32 %190, ptr %16, align 4, !tbaa !20
  br label %141, !llvm.loop !86

191:                                              ; preds = %141
  %192 = load ptr, ptr %13, align 8, !tbaa !54
  %193 = call i32 (ptr, ptr, ...) @gzprintf(ptr noundef %192, ptr noundef @.str.4)
  %194 = load ptr, ptr %13, align 8, !tbaa !54
  %195 = call i32 @gzclose(ptr noundef %194)
  store i32 0, ptr %18, align 4
  br label %196

196:                                              ; preds = %191, %23
  call void @llvm.lifetime.end.p0(i64 4, ptr %17) #11
  call void @llvm.lifetime.end.p0(i64 4, ptr %16) #11
  call void @llvm.lifetime.end.p0(i64 8, ptr %15) #11
  call void @llvm.lifetime.end.p0(i64 8, ptr %14) #11
  call void @llvm.lifetime.end.p0(i64 8, ptr %13) #11
  %197 = load i32, ptr %18, align 4
  switch i32 %197, label %199 [
    i32 0, label %198
    i32 1, label %198
  ]

198:                                              ; preds = %196, %196
  ret void

199:                                              ; preds = %196
  unreachable
}