; Function Attrs: nounwind uwtable
define void @Cnf_DataWriteIntoFileInvGz(ptr noundef readonly captures(none) %0, ptr noundef %1, i32 noundef %2, ptr noundef readonly %3, ptr noundef readonly %4, ptr noundef readonly %5) local_unnamed_addr #0 {
  %7 = tail call ptr @gzopen(ptr noundef %1, ptr noundef nonnull @.str.5) #16
  %8 = icmp eq ptr %7, null
  br i1 %8, label %9, label %10

9:                                                ; preds = %6
  %puts = tail call i32 @puts(ptr nonnull dereferenceable(1) @str.3)
  br label %104

10:                                               ; preds = %6
  %11 = tail call i32 (ptr, ptr, ...) @gzprintf(ptr noundef nonnull %7, ptr noundef nonnull @.str.7) #16
  %12 = getelementptr inbounds nuw i8, ptr %0, i64 8
  %13 = load i32, ptr %12, align 8, !tbaa !48
  %14 = getelementptr inbounds nuw i8, ptr %0, i64 16
  %15 = load i32, ptr %14, align 8, !tbaa !49
  %16 = tail call i32 (ptr, ptr, ...) @gzprintf(ptr noundef nonnull %7, ptr noundef nonnull @.str, i32 noundef %13, i32 noundef %15) #16
  %.not = icmp eq ptr %3, null
  br i1 %.not, label %31, label %17

17:                                               ; preds = %10
  %18 = tail call i32 (ptr, ptr, ...) @gzprintf(ptr noundef nonnull %7, ptr noundef nonnull @.str.11) #16
  %19 = getelementptr i8, ptr %3, i64 4
  %.val7479 = load i32, ptr %19, align 4, !tbaa !20
  %20 = icmp sgt i32 %.val7479, 0
  br i1 %20, label %.lr.ph, label %.critedge

.lr.ph:                                           ; preds = %17
  %21 = getelementptr i8, ptr %3, i64 8
  %.not72 = icmp eq i32 %2, 0
  %22 = zext i1 %.not72 to i32
  br label %23

23:                                               ; preds = %.lr.ph, %23
  %indvars.iv = phi i64 [ 0, %.lr.ph ], [ %indvars.iv.next, %23 ]
  %.val77 = load ptr, ptr %21, align 8, !tbaa !23
  %24 = getelementptr inbounds nuw i32, ptr %.val77, i64 %indvars.iv
  %25 = load i32, ptr %24, align 4, !tbaa !28
  %26 = add nsw i32 %25, %22
  %27 = tail call i32 (ptr, ptr, ...) @gzprintf(ptr noundef nonnull %7, ptr noundef nonnull @.str.9, i32 noundef %26) #16
  %indvars.iv.next = add nuw nsw i64 %indvars.iv, 1
  %.val74 = load i32, ptr %19, align 4, !tbaa !20
  %28 = sext i32 %.val74 to i64
  %29 = icmp slt i64 %indvars.iv.next, %28
  br i1 %29, label %23, label %.critedge, !llvm.loop !73

.critedge:                                        ; preds = %23, %17
  %30 = tail call i32 (ptr, ptr, ...) @gzprintf(ptr noundef nonnull %7, ptr noundef nonnull @.str.10) #16
  br label %31

31:                                               ; preds = %.critedge, %10
  %.not67 = icmp eq ptr %4, null
  br i1 %.not67, label %46, label %32

32:                                               ; preds = %31
  %33 = tail call i32 (ptr, ptr, ...) @gzprintf(ptr noundef nonnull %7, ptr noundef nonnull @.str.8) #16
  %34 = getelementptr i8, ptr %4, i64 4
  %.val7381 = load i32, ptr %34, align 4, !tbaa !20
  %35 = icmp sgt i32 %.val7381, 0
  br i1 %35, label %.lr.ph83, label %.critedge2

.lr.ph83:                                         ; preds = %32
  %36 = getelementptr i8, ptr %4, i64 8
  %.not71 = icmp eq i32 %2, 0
  %37 = zext i1 %.not71 to i32
  br label %38

38:                                               ; preds = %.lr.ph83, %38
  %indvars.iv95 = phi i64 [ 0, %.lr.ph83 ], [ %indvars.iv.next96, %38 ]
  %.val76 = load ptr, ptr %36, align 8, !tbaa !23
  %39 = getelementptr inbounds nuw i32, ptr %.val76, i64 %indvars.iv95
  %40 = load i32, ptr %39, align 4, !tbaa !28
  %41 = add nsw i32 %40, %37
  %42 = tail call i32 (ptr, ptr, ...) @gzprintf(ptr noundef nonnull %7, ptr noundef nonnull @.str.9, i32 noundef %41) #16
  %indvars.iv.next96 = add nuw nsw i64 %indvars.iv95, 1
  %.val73 = load i32, ptr %34, align 4, !tbaa !20
  %43 = sext i32 %.val73 to i64
  %44 = icmp slt i64 %indvars.iv.next96, %43
  br i1 %44, label %38, label %.critedge2, !llvm.loop !74

.critedge2:                                       ; preds = %38, %32
  %45 = tail call i32 (ptr, ptr, ...) @gzprintf(ptr noundef nonnull %7, ptr noundef nonnull @.str.10) #16
  br label %46

46:                                               ; preds = %.critedge2, %31
  %.not68 = icmp eq ptr %5, null
  br i1 %.not68, label %61, label %47

47:                                               ; preds = %46
  %48 = tail call i32 (ptr, ptr, ...) @gzprintf(ptr noundef nonnull %7, ptr noundef nonnull @.str.11) #16
  %49 = getelementptr i8, ptr %5, i64 4
  %.val84 = load i32, ptr %49, align 4, !tbaa !20
  %50 = icmp sgt i32 %.val84, 0
  br i1 %50, label %.lr.ph86, label %.critedge4

.lr.ph86:                                         ; preds = %47
  %51 = getelementptr i8, ptr %5, i64 8
  %.not70 = icmp eq i32 %2, 0
  %52 = zext i1 %.not70 to i32
  br label %53

53:                                               ; preds = %.lr.ph86, %53
  %indvars.iv98 = phi i64 [ 0, %.lr.ph86 ], [ %indvars.iv.next99, %53 ]
  %.val75 = load ptr, ptr %51, align 8, !tbaa !23
  %54 = getelementptr inbounds nuw i32, ptr %.val75, i64 %indvars.iv98
  %55 = load i32, ptr %54, align 4, !tbaa !28
  %56 = add nsw i32 %55, %52
  %57 = tail call i32 (ptr, ptr, ...) @gzprintf(ptr noundef nonnull %7, ptr noundef nonnull @.str.9, i32 noundef %56) #16
  %indvars.iv.next99 = add nuw nsw i64 %indvars.iv98, 1
  %.val = load i32, ptr %49, align 4, !tbaa !20
  %58 = sext i32 %.val to i64
  %59 = icmp slt i64 %indvars.iv.next99, %58
  br i1 %59, label %53, label %.critedge4, !llvm.loop !75

.critedge4:                                       ; preds = %53, %47
  %60 = tail call i32 (ptr, ptr, ...) @gzprintf(ptr noundef nonnull %7, ptr noundef nonnull @.str.10) #16
  br label %61

61:                                               ; preds = %.critedge4, %46
  %62 = load i32, ptr %14, align 8, !tbaa !49
  %63 = icmp sgt i32 %62, 0
  br i1 %63, label %.lr.ph91, label %._crit_edge92

.lr.ph91:                                         ; preds = %61
  %64 = getelementptr inbounds nuw i8, ptr %0, i64 24
  %.not69 = icmp eq i32 %2, 0
  br i1 %.not69, label %.lr.ph91.split.us, label %.lr.ph91.split

.lr.ph91.split.us:                                ; preds = %.lr.ph91, %._crit_edge.split.us.us
  %indvars.iv104 = phi i64 [ %indvars.iv.next105, %._crit_edge.split.us.us ], [ 0, %.lr.ph91 ]
  %65 = load ptr, ptr %64, align 8, !tbaa !51
  %66 = getelementptr inbounds nuw ptr, ptr %65, i64 %indvars.iv104
  %67 = load ptr, ptr %66, align 8, !tbaa !16
  %indvars.iv.next105 = add nuw nsw i64 %indvars.iv104, 1
  %68 = getelementptr inbounds nuw ptr, ptr %65, i64 %indvars.iv.next105
  %69 = load ptr, ptr %68, align 8, !tbaa !16
  %70 = icmp ult ptr %67, %69
  br i1 %70, label %.lr.ph88.us, label %._crit_edge.split.us.us

._crit_edge.split.us.us:                          ; preds = %.lr.ph88.us, %.lr.ph91.split.us
  %71 = tail call i32 (ptr, ptr, ...) @gzprintf(ptr noundef nonnull %7, ptr noundef nonnull @.str.10) #16
  %72 = load i32, ptr %14, align 8, !tbaa !49
  %73 = sext i32 %72 to i64
  %74 = icmp slt i64 %indvars.iv.next105, %73
  br i1 %74, label %.lr.ph91.split.us, label %._crit_edge92, !llvm.loop !76

.lr.ph88.us:                                      ; preds = %.lr.ph91.split.us, %.lr.ph88.us
  %.06287.us.us = phi ptr [ %82, %.lr.ph88.us ], [ %67, %.lr.ph91.split.us ]
  %75 = load i32, ptr %.06287.us.us, align 4, !tbaa !28
  %76 = and i32 %75, 1
  %.not.i78.us.us = icmp eq i32 %76, 0
  %77 = ashr i32 %75, 1
  %78 = xor i32 %77, -1
  %79 = add nsw i32 %77, 1
  %80 = select i1 %.not.i78.us.us, i32 %79, i32 %78
  %81 = tail call i32 (ptr, ptr, ...) @gzprintf(ptr noundef nonnull %7, ptr noundef nonnull @.str.9, i32 noundef %80) #16
  %82 = getelementptr inbounds nuw i8, ptr %.06287.us.us, i64 4
  %83 = icmp ult ptr %82, %69
  br i1 %83, label %.lr.ph88.us, label %._crit_edge.split.us.us, !llvm.loop !77

.lr.ph91.split:                                   ; preds = %.lr.ph91, %._crit_edge.split
  %indvars.iv101 = phi i64 [ %indvars.iv.next102, %._crit_edge.split ], [ 0, %.lr.ph91 ]
  %84 = load ptr, ptr %64, align 8, !tbaa !51
  %85 = getelementptr inbounds nuw ptr, ptr %84, i64 %indvars.iv101
  %86 = load ptr, ptr %85, align 8, !tbaa !16
  %indvars.iv.next102 = add nuw nsw i64 %indvars.iv101, 1
  %87 = getelementptr inbounds nuw ptr, ptr %84, i64 %indvars.iv.next102
  %88 = load ptr, ptr %87, align 8, !tbaa !16
  %89 = icmp ult ptr %86, %88
  br i1 %89, label %.lr.ph88, label %._crit_edge.split

.lr.ph88:                                         ; preds = %.lr.ph91.split, %.lr.ph88
  %.06287 = phi ptr [ %96, %.lr.ph88 ], [ %86, %.lr.ph91.split ]
  %90 = load i32, ptr %.06287, align 4, !tbaa !28
  %91 = and i32 %90, 1
  %.not.i = icmp eq i32 %91, 0
  %92 = ashr i32 %90, 1
  %93 = sub nsw i32 0, %92
  %94 = select i1 %.not.i, i32 %92, i32 %93
  %95 = tail call i32 (ptr, ptr, ...) @gzprintf(ptr noundef nonnull %7, ptr noundef nonnull @.str.9, i32 noundef %94) #16
  %96 = getelementptr inbounds nuw i8, ptr %.06287, i64 4
  %97 = icmp ult ptr %96, %88
  br i1 %97, label %.lr.ph88, label %._crit_edge.split, !llvm.loop !77

._crit_edge.split:                                ; preds = %.lr.ph88, %.lr.ph91.split
  %98 = tail call i32 (ptr, ptr, ...) @gzprintf(ptr noundef nonnull %7, ptr noundef nonnull @.str.10) #16
  %99 = load i32, ptr %14, align 8, !tbaa !49
  %100 = sext i32 %99 to i64
  %101 = icmp slt i64 %indvars.iv.next102, %100
  br i1 %101, label %.lr.ph91.split, label %._crit_edge92, !llvm.loop !76

._crit_edge92:                                    ; preds = %._crit_edge.split, %._crit_edge.split.us.us, %61
  %102 = tail call i32 (ptr, ptr, ...) @gzprintf(ptr noundef nonnull %7, ptr noundef nonnull @.str.4) #16
  %103 = tail call i32 @gzclose(ptr noundef nonnull %7) #16
  br label %104

104:                                              ; preds = %._crit_edge92, %9
  ret void
}